; Function Attrs: mustprogress uwtable
define hidden void @_ZN6google8protobuf8internal15DynamicMapField4SwapEPNS1_12MapFieldBaseE(ptr noundef nonnull align 8 dereferenceable(128) %0, ptr noundef %1) unnamed_addr #6 align 2 {
  %3 = getelementptr inbounds nuw i8, ptr %0, i64 16
  %4 = getelementptr inbounds nuw i8, ptr %1, i64 16
  %5 = load ptr, ptr %3, align 8, !tbaa !25
  %6 = load ptr, ptr %4, align 8, !tbaa !25
  store ptr %6, ptr %3, align 8, !tbaa !25
  store ptr %5, ptr %4, align 8, !tbaa !25
  %7 = getelementptr inbounds nuw i8, ptr %0, i64 72
  %8 = getelementptr inbounds nuw i8, ptr %1, i64 72
  tail call void @_ZN6google8protobuf3MapINS0_6MapKeyENS0_11MapValueRefEE4swapERS4_(ptr noundef nonnull align 8 dereferenceable(48) %7, ptr noundef nonnull align 8 dereferenceable(48) %8)
  %9 = getelementptr inbounds nuw i8, ptr %1, i64 64
  %10 = load atomic i32, ptr %9 monotonic, align 4
  %11 = getelementptr inbounds nuw i8, ptr %0, i64 64
  %12 = load atomic i32, ptr %11 monotonic, align 8
  store atomic i32 %12, ptr %9 monotonic, align 4
  store atomic i32 %10, ptr %11 monotonic, align 8
  ret void
}